00001  0000             DEFM       WAITFORRASTER
00002  0001             RASTERLOOP 
00003  0001                        LDA /1
00004  0001                        CMP RASTER_LINE
00005  0001                        BNE RASTERLOOP
00006  0001             ENDM
00007  0001             
00008  0001             DEFM       ENABLESPRITES
00009  0001                        LDA /1
00010  0001                        STA SPRITE_ENABLED
00011  0001             ENDM
00012  0001             
00013  0001             DEFM       POINTTOSPRITEDATA
00014  0001                        LDA /1
00015  0001                        STA /2
00016  0001             ENDM
00017  0001             
00018  0001             DEFM       DRAWSCREEN
00019  0001                        LDX #0
00020  0001             @BLOCK1
00021  0001                        LDA /1,X
00022  0001                        TAY
00023  0001                        STA SCREEN_BLOCK1,X
00024  0001                        INX
00025  0001                        CPX #255
00026  0001                        BNE @BLOCK1
00027  0001                        LDX #0
00028  0001             @BLOCK2
00029  0001                        LDA /2,X
00030  0001                        TAY
00031  0001                        STA SCREEN_BLOCK2,X
00032  0001                        INX
00033  0001                        CPX #255
00034  0001                        BNE @BLOCK2
00035  0001                        LDX #0
00036  0001             @BLOCK3
00037  0001                        LDA /3,X
00038  0001                        TAY
00039  0001                        STA SCREEN_BLOCK3,X
00040  0001                        INX
00041  0001                        CPX #255
00042  0001                        BNE @BLOCK3
00043  0001                        LDX #0
00044  0001             @BLOCK4
00045  0001                        LDA /4,X
00046  0001                        TAY
00047  0001                        STA SCREEN_BLOCK4,X
00048  0001                        INX
00049  0001                        CPX #255
00050  0001                        BNE @BLOCK4
00051  0001                        LDX #0
00052  0001                        RTS
00053  0001             ENDM
00054  0001             
00055  0001             DEFM       PRINTCHAR
00056  0001                        LDA /1
00057  0001                        JSR CHAROUT
00058  0001                        RTS
00059  0001             ENDM
00060  0001             
00061  0001             DEFM       PRINTSTR
00062  0001                        LDX #0
00063  0001                        LDY #0
00064  0001             @LOOP
00065  0001                        LDA #255
00066  0001                        CMP RASTER_LINE
00067  0001                        BNE @LOOP
00068  0001                        INY
00069  0001                        CPY #2
00070  0001                        BNE @LOOP
00071  0001                        CMP
00072  0001                        LDA /1,X
00073  0001                        CMP #0
00074  0001                        BEQ @ENDLOOP
00075  0001                        STA $0400,X
00076  0001                        INX
00077  0001                        JMP @LOOP
00078  0001             @ENDLOOP
00079  0001                        RTS
00080  0001             ENDM
00081  0001             

******* 0 Label(s) *******

******* 0 Unused label(s) *******

******* 1 Variable(s) *******
tgt_c64  = $0001
******* 1 Unused variables(s) *******
tgt_c64

